; Function Attrs: mustprogress nofree nounwind willreturn memory(write, argmem: readwrite) uwtable
define noundef double @_ZNK8QuantLib23HullWhiteForwardProcess1BEdd(ptr nocapture noundef nonnull readonly align 8 dereferenceable(200) %this, double noundef %t, double noundef %T) local_unnamed_addr #15 align 2 {
entry:
  %a_ = getelementptr inbounds nuw i8, ptr %this, i64 184
  %0 = load double, ptr %a_, align 8, !tbaa !74
  %cmp = fcmp ogt double %0, 0x3CB0000000000000
  br i1 %cmp, label %cond.true, label %cond.false

cond.true:                                        ; preds = %entry
  %div = fdiv double 1.000000e+00, %0
  %fneg = fneg double %0
  %sub = fsub double %T, %t
  %mul = fmul double %sub, %fneg
  %call4 = tail call double @exp(double noundef %mul) #25, !tbaa !73
  %sub5 = fsub double 1.000000e+00, %call4
  %mul6 = fmul double %div, %sub5
  br label %cond.end

cond.false:                                       ; preds = %entry
  %sub7 = fsub double %T, %t
  br label %cond.end

cond.end:                                         ; preds = %cond.false, %cond.true
  %cond = phi double [ %mul6, %cond.true ], [ %sub7, %cond.false ]
  ret double %cond
}